; Function Attrs: nounwind uwtable
define internal fastcc ptr @_init_l_Lean_Elab_Tactic_BVDecide_Frontend_Normalize_evalBVNormalize___regBuiltin_Lean_Elab_Tactic_BVDecide_Frontend_Normalize_evalBVNormalize__1___closed__6() unnamed_addr #0 {
  %1 = load ptr, ptr @l_Lean_Elab_Tactic_BVDecide_Frontend_Normalize_evalBVNormalize___closed__1, align 8, !tbaa !9
  %2 = load ptr, ptr @l_Lean_Elab_Tactic_BVDecide_Frontend_Normalize_evalBVNormalize___regBuiltin_Lean_Elab_Tactic_BVDecide_Frontend_Normalize_evalBVNormalize__1___closed__1, align 8, !tbaa !9
  %3 = load ptr, ptr @l_Lean_Elab_Tactic_BVDecide_Frontend_Normalize_bvNormalize_go___closed__2, align 8, !tbaa !9
  %4 = load ptr, ptr @l_Lean_Elab_Tactic_BVDecide_Frontend_Normalize_evalBVNormalize___regBuiltin_Lean_Elab_Tactic_BVDecide_Frontend_Normalize_evalBVNormalize__1___closed__2, align 8, !tbaa !9
  %5 = load ptr, ptr @l_Lean_Elab_Tactic_BVDecide_Frontend_Normalize_evalBVNormalize___regBuiltin_Lean_Elab_Tactic_BVDecide_Frontend_Normalize_evalBVNormalize__1___closed__3, align 8, !tbaa !9
  %6 = load ptr, ptr @l_Lean_Elab_Tactic_BVDecide_Frontend_Normalize_evalBVNormalize___regBuiltin_Lean_Elab_Tactic_BVDecide_Frontend_Normalize_evalBVNormalize__1___closed__4, align 8, !tbaa !9
  %7 = load ptr, ptr @l_Lean_Elab_Tactic_BVDecide_Frontend_Normalize_evalBVNormalize___regBuiltin_Lean_Elab_Tactic_BVDecide_Frontend_Normalize_evalBVNormalize__1___closed__5, align 8, !tbaa !9
  %8 = tail call ptr @l_Lean_Name_mkStr7(ptr noundef %1, ptr noundef %2, ptr noundef %3, ptr noundef %4, ptr noundef %5, ptr noundef %6, ptr noundef %7) #4
  ret ptr %8
}